target datalayout = "e-m:e-p270:32:32-p271:32:32-p272:64:64-i64:64-i128:128-f80:128-n8:16:32:64-S128"
target triple = "x86_64-pc-linux-gnu"

%struct._zend_refcounted_h = type { i32, %union.anon }
%union.anon = type { i32 }
%struct._zval_struct = type { %union._zend_value, %union.anon.3, %union.anon.6 }
%union._zend_value = type { i64 }
%union.anon.3 = type { i32 }
%union.anon.6 = type { i32 }
%struct._zend_string = type { %struct._zend_refcounted_h, i64, i64, [1 x i8] }

@stderr = external global ptr, align 8
@.str.4 = private unnamed_addr constant [6 x i8] c" null\00", align 1
@.str.5 = private unnamed_addr constant [13 x i8] c" bool(false)\00", align 1
@.str.6 = private unnamed_addr constant [12 x i8] c" bool(true)\00", align 1
@.str.7 = private unnamed_addr constant [10 x i8] c" int(%ld)\00", align 1
@.str.8 = private unnamed_addr constant [11 x i8] c" float(%g)\00", align 1
@.str.9 = private unnamed_addr constant [3 x i8] c"\22\\\00", align 1
@.str.10 = private unnamed_addr constant [14 x i8] c" string(\22%s\22)\00", align 1
@.str.11 = private unnamed_addr constant [12 x i8] c" array(...)\00", align 1
@.str.12 = private unnamed_addr constant [15 x i8] c" zval(type=%d)\00", align 1

; Function Attrs: nounwind uwtable
define hidden void @zend_dump_const(ptr noundef %0) #0 {
  %2 = alloca ptr, align 8
  %3 = alloca i32, align 4
  %4 = alloca i32, align 4
  %5 = alloca ptr, align 8
  %6 = alloca ptr, align 8
  %7 = alloca ptr, align 8
  %8 = alloca ptr, align 8
  %9 = alloca ptr, align 8
  store ptr %0, ptr %8, align 8
  %10 = load ptr, ptr %8, align 8
  store ptr %10, ptr %6, align 8
  %11 = load ptr, ptr %6, align 8
  %12 = getelementptr inbounds %struct._zval_struct, ptr %11, i32 0, i32 1
  %13 = load i8, ptr %12, align 8
  %14 = zext i8 %13 to i32
  switch i32 %14, label %81 [
    i32 1, label %15
    i32 2, label %18
    i32 3, label %21
    i32 4, label %24
    i32 5, label %30
    i32 6, label %36
    i32 7, label %78
  ]

15:                                               ; preds = %1
  %16 = load ptr, ptr @stderr, align 8
  %17 = call i32 (ptr, ptr, ...) @fprintf(ptr noundef %16, ptr noundef @.str.4) #4
  br label %89

18:                                               ; preds = %1
  %19 = load ptr, ptr @stderr, align 8
  %20 = call i32 (ptr, ptr, ...) @fprintf(ptr noundef %19, ptr noundef @.str.5) #4
  br label %89

21:                                               ; preds = %1
  %22 = load ptr, ptr @stderr, align 8
  %23 = call i32 (ptr, ptr, ...) @fprintf(ptr noundef %22, ptr noundef @.str.6) #4
  br label %89

24:                                               ; preds = %1
  %25 = load ptr, ptr @stderr, align 8
  %26 = load ptr, ptr %8, align 8
  %27 = getelementptr inbounds %struct._zval_struct, ptr %26, i32 0, i32 0
  %28 = load i64, ptr %27, align 8
  %29 = call i32 (ptr, ptr, ...) @fprintf(ptr noundef %25, ptr noundef @.str.7, i64 noundef %28) #4
  br label %89

30:                                               ; preds = %1
  %31 = load ptr, ptr @stderr, align 8
  %32 = load ptr, ptr %8, align 8
  %33 = getelementptr inbounds %struct._zval_struct, ptr %32, i32 0, i32 0
  %34 = load double, ptr %33, align 8
  %35 = call i32 (ptr, ptr, ...) @fprintf(ptr noundef %31, ptr noundef @.str.8, double noundef %34) #4
  br label %89

36:                                               ; preds = %1
  %37 = load ptr, ptr %8, align 8
  %38 = getelementptr inbounds %struct._zval_struct, ptr %37, i32 0, i32 0
  %39 = load ptr, ptr %38, align 8
  %40 = call ptr @php_addcslashes(ptr noundef %39, ptr noundef @.str.9, i64 noundef 2)
  store ptr %40, ptr %9, align 8
  %41 = load ptr, ptr @stderr, align 8
  %42 = load ptr, ptr %9, align 8
  %43 = getelementptr inbounds %struct._zend_string, ptr %42, i32 0, i32 3
  %44 = getelementptr inbounds [1 x i8], ptr %43, i64 0, i64 0
  %45 = call i32 (ptr, ptr, ...) @fprintf(ptr noundef %41, ptr noundef @.str.10, ptr noundef %44) #4
  %46 = load ptr, ptr %9, align 8
  store ptr %46, ptr %5, align 8
  %47 = load ptr, ptr %5, align 8
  %48 = getelementptr inbounds %struct._zend_refcounted_h, ptr %47, i32 0, i32 1
  %49 = load i32, ptr %48, align 4
  store i32 %49, ptr %3, align 4
  %50 = load i32, ptr %3, align 4
  %51 = and i32 %50, 1008
  %52 = and i32 %51, 64
  %53 = icmp ne i32 %52, 0
  br i1 %53, label %77, label %54

54:                                               ; preds = %36
  %55 = load ptr, ptr %5, align 8
  store ptr %55, ptr %2, align 8
  %56 = load ptr, ptr %2, align 8
  %57 = load i32, ptr %56, align 4
  %58 = icmp ugt i32 %57, 0
  call void @llvm.assume(i1 %58)
  %59 = load ptr, ptr %2, align 8
  %60 = load i32, ptr %59, align 4
  %61 = add i32 %60, -1
  store i32 %61, ptr %59, align 4
  %62 = icmp eq i32 %61, 0
  br i1 %62, label %63, label %76

63:                                               ; preds = %54
  %64 = load ptr, ptr %5, align 8
  %65 = getelementptr inbounds %struct._zend_refcounted_h, ptr %64, i32 0, i32 1
  %66 = load i32, ptr %65, align 4
  store i32 %66, ptr %4, align 4
  %67 = load i32, ptr %4, align 4
  %68 = and i32 %67, 1008
  %69 = and i32 %68, 128
  %70 = icmp ne i32 %69, 0
  br i1 %70, label %71, label %73

71:                                               ; preds = %63
  %72 = load ptr, ptr %5, align 8
  call void @free(ptr noundef %72) #4
  br label %75

73:                                               ; preds = %63
  %74 = load ptr, ptr %5, align 8
  call void @_efree(ptr noundef %74) #4
  br label %75

75:                                               ; preds = %73, %71
  br label %76

76:                                               ; preds = %75, %54
  br label %77

77:                                               ; preds = %76, %36
  br label %89

78:                                               ; preds = %1
  %79 = load ptr, ptr @stderr, align 8
  %80 = call i32 (ptr, ptr, ...) @fprintf(ptr noundef %79, ptr noundef @.str.11) #4
  br label %89

81:                                               ; preds = %1
  %82 = load ptr, ptr @stderr, align 8
  %83 = load ptr, ptr %8, align 8
  store ptr %83, ptr %7, align 8
  %84 = load ptr, ptr %7, align 8
  %85 = getelementptr inbounds %struct._zval_struct, ptr %84, i32 0, i32 1
  %86 = load i8, ptr %85, align 8
  %87 = zext i8 %86 to i32
  %88 = call i32 (ptr, ptr, ...) @fprintf(ptr noundef %82, ptr noundef @.str.12, i32 noundef %87) #4
  br label %89

89:                                               ; preds = %81, %78, %77, %30, %24, %21, %18, %15
  ret void
}