; Function Attrs: nounwind uwtable
define hidden void @zend_dump_const(ptr nocapture noundef readonly %0) local_unnamed_addr #0 {
  %2 = getelementptr inbounds i8, ptr %0, i64 8
  %3 = load i8, ptr %2, align 8
  switch i8 %3, label %42 [
    i8 1, label %4
    i8 2, label %7
    i8 3, label %10
    i8 4, label %13
    i8 5, label %17
    i8 6, label %21
    i8 7, label %39
  ]

4:                                                ; preds = %1
  %5 = load ptr, ptr @stderr, align 8
  %6 = tail call i64 @fwrite(ptr nonnull @.str.4, i64 5, i64 1, ptr %5) #7
  br label %46

7:                                                ; preds = %1
  %8 = load ptr, ptr @stderr, align 8
  %9 = tail call i64 @fwrite(ptr nonnull @.str.5, i64 12, i64 1, ptr %8) #7
  br label %46

10:                                               ; preds = %1
  %11 = load ptr, ptr @stderr, align 8
  %12 = tail call i64 @fwrite(ptr nonnull @.str.6, i64 11, i64 1, ptr %11) #7
  br label %46

13:                                               ; preds = %1
  %14 = load ptr, ptr @stderr, align 8
  %15 = load i64, ptr %0, align 8
  %16 = tail call i32 (ptr, ptr, ...) @fprintf(ptr noundef %14, ptr noundef nonnull @.str.7, i64 noundef %15) #8
  br label %46

17:                                               ; preds = %1
  %18 = load ptr, ptr @stderr, align 8
  %19 = load double, ptr %0, align 8
  %20 = tail call i32 (ptr, ptr, ...) @fprintf(ptr noundef %18, ptr noundef nonnull @.str.8, double noundef %19) #8
  br label %46

21:                                               ; preds = %1
  %22 = load ptr, ptr %0, align 8
  %23 = tail call ptr @php_addcslashes(ptr noundef %22, ptr noundef nonnull @.str.9, i64 noundef 2) #9
  %24 = load ptr, ptr @stderr, align 8
  %25 = getelementptr inbounds i8, ptr %23, i64 24
  %26 = tail call i32 (ptr, ptr, ...) @fprintf(ptr noundef %24, ptr noundef nonnull @.str.10, ptr noundef nonnull %25) #8
  %27 = getelementptr inbounds i8, ptr %23, i64 4
  %28 = load i32, ptr %27, align 4
  %29 = and i32 %28, 64
  %.not = icmp eq i32 %29, 0
  br i1 %.not, label %30, label %46

30:                                               ; preds = %21
  %31 = load i32, ptr %23, align 4
  %32 = icmp ne i32 %31, 0
  tail call void @llvm.assume(i1 %32)
  %33 = add i32 %31, -1
  store i32 %33, ptr %23, align 4
  %34 = icmp eq i32 %33, 0
  br i1 %34, label %35, label %46

35:                                               ; preds = %30
  %36 = and i32 %28, 128
  %.not17 = icmp eq i32 %36, 0
  br i1 %.not17, label %38, label %37

37:                                               ; preds = %35
  tail call void @free(ptr noundef nonnull %23) #9
  br label %46

38:                                               ; preds = %35
  tail call void @_efree(ptr noundef nonnull %23) #9
  br label %46

39:                                               ; preds = %1
  %40 = load ptr, ptr @stderr, align 8
  %41 = tail call i64 @fwrite(ptr nonnull @.str.11, i64 11, i64 1, ptr %40) #7
  br label %46

42:                                               ; preds = %1
  %43 = zext i8 %3 to i32
  %44 = load ptr, ptr @stderr, align 8
  %45 = tail call i32 (ptr, ptr, ...) @fprintf(ptr noundef %44, ptr noundef nonnull @.str.12, i32 noundef %43) #8
  br label %46

46:                                               ; preds = %21, %37, %38, %30, %42, %39, %17, %13, %10, %7, %4
  ret void
}